; Function Attrs: nounwind sspstrong uwtable
define dso_local i64 @rb_str_intern(i64 noundef %0) local_unnamed_addr #0 {
  %2 = alloca i64, align 8
  %3 = alloca ptr, align 8
  %4 = alloca i32, align 4
  call void @llvm.lifetime.start.p0(i64 4, ptr nonnull %4) #19
  %5 = load ptr, ptr @ruby_single_main_ractor, align 8, !tbaa !24
  %.not.i.i = icmp eq ptr %5, null
  br i1 %.not.i.i, label %6, label %rb_vm_lock_enter.exit

6:                                                ; preds = %1
  call void @rb_vm_lock_enter_body(ptr noundef nonnull %4) #19
  br label %rb_vm_lock_enter.exit

rb_vm_lock_enter.exit:                            ; preds = %1, %6
  %7 = call fastcc i64 @lookup_str_sym_with_lock(i64 noundef %0)
  %.not = icmp eq i64 %7, 0
  br i1 %.not, label %8, label %39

8:                                                ; preds = %rb_vm_lock_enter.exit
  %9 = call ptr @rb_enc_get(i64 noundef %0) #19
  %10 = call nonnull ptr @rb_usascii_encoding() #19
  %.not25 = icmp eq ptr %9, %10
  br i1 %.not25, label %sym_check_asciionly.exit.thread, label %11

11:                                               ; preds = %8
  %12 = call ptr @rb_enc_get(i64 noundef %0) #19
  %13 = getelementptr i8, ptr %12, i64 20
  %.val.i.i = load i32, ptr %13, align 4, !tbaa !40
  %.not.i.i27 = icmp eq i32 %.val.i.i, 1
  br i1 %.not.i.i27, label %rb_enc_asciicompat.exit.i, label %sym_check_asciionly.exit.thread

rb_enc_asciicompat.exit.i:                        ; preds = %11
  %14 = call i32 @rb_enc_dummy_p(ptr noundef nonnull readonly %12) #21
  %.not3.i.i = icmp eq i32 %14, 0
  br i1 %.not3.i.i, label %15, label %sym_check_asciionly.exit.thread

15:                                               ; preds = %rb_enc_asciicompat.exit.i
  %16 = call i32 @rb_enc_str_coderange(i64 noundef %0) #19
  switch i32 %16, label %sym_check_asciionly.exit.thread [
    i32 3145728, label %17
    i32 1048576, label %sym_check_asciionly.exit
  ]

17:                                               ; preds = %15
  %18 = load i64, ptr @rb_eEncodingError, align 8, !tbaa !32
  %19 = call ptr @rb_enc_get(i64 noundef %0) #19
  %20 = getelementptr i8, ptr %19, i64 8
  %.val.i = load ptr, ptr %20, align 8, !tbaa !43
  call void (i64, ptr, ...) @rb_raise(i64 noundef %18, ptr noundef nonnull @.str.110, ptr noundef %.val.i, i64 noundef %0) #20
  unreachable

sym_check_asciionly.exit:                         ; preds = %15
  %21 = call i64 @rb_str_dup(i64 noundef %0) #19
  %22 = call i64 @rb_enc_associate(i64 noundef %21, ptr noundef nonnull %10) #19
  br label %24

sym_check_asciionly.exit.thread:                  ; preds = %15, %11, %rb_enc_asciicompat.exit.i, %8
  %23 = call i64 @rb_str_dup(i64 noundef %0) #19
  br label %24

24:                                               ; preds = %sym_check_asciionly.exit.thread, %sym_check_asciionly.exit
  %.sink = phi i64 [ %23, %sym_check_asciionly.exit.thread ], [ %21, %sym_check_asciionly.exit ]
  %.022 = phi ptr [ %9, %sym_check_asciionly.exit.thread ], [ %10, %sym_check_asciionly.exit ]
  call void @rb_obj_freeze_inline(i64 noundef %.sink) #19
  %25 = call i64 @rb_fstring(i64 noundef %.sink) #19
  call void @llvm.lifetime.start.p0(i64 8, ptr nonnull %2)
  store i64 %25, ptr %2, align 8, !tbaa !32
  %26 = call ptr @rb_string_value_ptr(ptr noundef nonnull %2) #19
  %27 = load i64, ptr %2, align 8, !tbaa !32
  %28 = inttoptr i64 %27 to ptr
  %29 = getelementptr inbounds nuw i8, ptr %28, i64 16
  %30 = load i64, ptr %29, align 8, !tbaa !35
  %31 = call ptr @rb_enc_get(i64 noundef %27) #19
  %32 = call i32 @rb_enc_symname_type(ptr noundef %26, i64 noundef %30, ptr noundef %31, i32 noundef 65279)
  call void @llvm.lifetime.start.p0(i64 8, ptr nonnull %3) #19
  store ptr %2, ptr %3, align 8, !tbaa !37
  call void asm sideeffect "", "*m,~{dirflag},~{fpsr},~{flags}"(ptr nonnull elementtype(ptr) %3) #19, !srcloc !39
  %33 = load ptr, ptr %3, align 8, !tbaa !37
  call void @llvm.lifetime.end.p0(i64 8, ptr nonnull %3) #19
  %34 = load volatile i64, ptr %33, align 8, !tbaa !32
  call void @llvm.lifetime.end.p0(i64 8, ptr nonnull %2)
  %35 = icmp slt i32 %32, 0
  %spec.store.select = select i1 %35, i32 14, i32 %32
  %36 = load i64, ptr @rb_cSymbol, align 8, !tbaa !32
  %37 = sext i32 %spec.store.select to i64
  %38 = call fastcc i64 @dsymbol_alloc(i64 noundef %36, i64 noundef %25, ptr noundef %.022, i64 noundef %37)
  br label %39

39:                                               ; preds = %rb_vm_lock_enter.exit, %24
  %.021 = phi i64 [ %7, %rb_vm_lock_enter.exit ], [ %38, %24 ]
  %40 = load ptr, ptr @ruby_single_main_ractor, align 8, !tbaa !24
  %.not.i.i28 = icmp eq ptr %40, null
  br i1 %.not.i.i28, label %41, label %rb_vm_lock_leave.exit

41:                                               ; preds = %39
  call void @rb_vm_lock_leave_body(ptr noundef nonnull %4) #19
  br label %rb_vm_lock_leave.exit

rb_vm_lock_leave.exit:                            ; preds = %39, %41
  call void @llvm.lifetime.end.p0(i64 4, ptr nonnull %4) #19
  ret i64 %.021
}